target datalayout = "e-m:e-p270:32:32-p271:32:32-p272:64:64-i64:64-i128:128-f80:128-n8:16:32:64-S128"
target triple = "x86_64-pc-linux-gnu"

; Function Attrs: nounwind uwtable
define dso_local i64 @redis_strlcpy(ptr noundef %0, ptr noundef %1, i64 noundef %2) #0 {
  %4 = alloca ptr, align 8
  %5 = alloca ptr, align 8
  %6 = alloca i64, align 8
  %7 = alloca ptr, align 8
  %8 = alloca i64, align 8
  store ptr %0, ptr %4, align 8, !tbaa !5
  store ptr %1, ptr %5, align 8, !tbaa !5
  store i64 %2, ptr %6, align 8, !tbaa !10
  call void @llvm.lifetime.start.p0(i64 8, ptr %7) #3
  %9 = load ptr, ptr %5, align 8, !tbaa !5
  store ptr %9, ptr %7, align 8, !tbaa !5
  call void @llvm.lifetime.start.p0(i64 8, ptr %8) #3
  %10 = load i64, ptr %6, align 8, !tbaa !10
  store i64 %10, ptr %8, align 8, !tbaa !10
  %11 = load i64, ptr %8, align 8, !tbaa !10
  %12 = icmp ne i64 %11, 0
  br i1 %12, label %13, label %29

13:                                               ; preds = %3
  br label %14

14:                                               ; preds = %27, %13
  %15 = load i64, ptr %8, align 8, !tbaa !10
  %16 = add i64 %15, -1
  store i64 %16, ptr %8, align 8, !tbaa !10
  %17 = icmp ne i64 %16, 0
  br i1 %17, label %18, label %28

18:                                               ; preds = %14
  %19 = load ptr, ptr %5, align 8, !tbaa !5
  %20 = getelementptr inbounds nuw i8, ptr %19, i32 1
  store ptr %20, ptr %5, align 8, !tbaa !5
  %21 = load i8, ptr %19, align 1, !tbaa !12
  %22 = load ptr, ptr %4, align 8, !tbaa !5
  %23 = getelementptr inbounds nuw i8, ptr %22, i32 1
  store ptr %23, ptr %4, align 8, !tbaa !5
  store i8 %21, ptr %22, align 1, !tbaa !12
  %24 = sext i8 %21 to i32
  %25 = icmp eq i32 %24, 0
  br i1 %25, label %26, label %27

26:                                               ; preds = %18
  br label %28

27:                                               ; preds = %18
  br label %14, !llvm.loop !13

28:                                               ; preds = %26, %14
  br label %29

29:                                               ; preds = %28, %3
  %30 = load i64, ptr %8, align 8, !tbaa !10
  %31 = icmp eq i64 %30, 0
  br i1 %31, label %32, label %45

32:                                               ; preds = %29
  %33 = load i64, ptr %6, align 8, !tbaa !10
  %34 = icmp ne i64 %33, 0
  br i1 %34, label %35, label %37

35:                                               ; preds = %32
  %36 = load ptr, ptr %4, align 8, !tbaa !5
  store i8 0, ptr %36, align 1, !tbaa !12
  br label %37

37:                                               ; preds = %35, %32
  br label %38

38:                                               ; preds = %43, %37
  %39 = load ptr, ptr %5, align 8, !tbaa !5
  %40 = getelementptr inbounds nuw i8, ptr %39, i32 1
  store ptr %40, ptr %5, align 8, !tbaa !5
  %41 = load i8, ptr %39, align 1, !tbaa !12
  %42 = icmp ne i8 %41, 0
  br i1 %42, label %43, label %44

43:                                               ; preds = %38
  br label %38, !llvm.loop !15

44:                                               ; preds = %38
  br label %45

45:                                               ; preds = %44, %29
  %46 = load ptr, ptr %5, align 8, !tbaa !5
  %47 = load ptr, ptr %7, align 8, !tbaa !5
  %48 = ptrtoint ptr %46 to i64
  %49 = ptrtoint ptr %47 to i64
  %50 = sub i64 %48, %49
  %51 = sub nsw i64 %50, 1
  call void @llvm.lifetime.end.p0(i64 8, ptr %8) #3
  call void @llvm.lifetime.end.p0(i64 8, ptr %7) #3
  ret i64 %51
}

; Function Attrs: nocallback nofree nosync nounwind willreturn memory(argmem: readwrite)
declare void @llvm.lifetime.start.p0(i64 immarg, ptr captures(none)) #1

; Function Attrs: nocallback nofree nosync nounwind willreturn memory(argmem: readwrite)
declare void @llvm.lifetime.end.p0(i64 immarg, ptr captures(none)) #1

; Function Attrs: nounwind uwtable
define dso_local i64 @redis_strlcat(ptr noundef %0, ptr noundef %1, i64 noundef %2) #0 {
  %4 = alloca i64, align 8
  %5 = alloca ptr, align 8
  %6 = alloca ptr, align 8
  %7 = alloca i64, align 8
  %8 = alloca ptr, align 8
  %9 = alloca ptr, align 8
  %10 = alloca i64, align 8
  %11 = alloca i64, align 8
  %12 = alloca i32, align 4
  store ptr %0, ptr %5, align 8, !tbaa !5
  store ptr %1, ptr %6, align 8, !tbaa !5
  store i64 %2, ptr %7, align 8, !tbaa !10
  call void @llvm.lifetime.start.p0(i64 8, ptr %8) #3
  %13 = load ptr, ptr %5, align 8, !tbaa !5
  store ptr %13, ptr %8, align 8, !tbaa !5
  call void @llvm.lifetime.start.p0(i64 8, ptr %9) #3
  %14 = load ptr, ptr %6, align 8, !tbaa !5
  store ptr %14, ptr %9, align 8, !tbaa !5
  call void @llvm.lifetime.start.p0(i64 8, ptr %10) #3
  %15 = load i64, ptr %7, align 8, !tbaa !10
  store i64 %15, ptr %10, align 8, !tbaa !10
  call void @llvm.lifetime.start.p0(i64 8, ptr %11) #3
  br label %16

16:                                               ; preds = %27, %3
  %17 = load i64, ptr %10, align 8, !tbaa !10
  %18 = add i64 %17, -1
  store i64 %18, ptr %10, align 8, !tbaa !10
  %19 = icmp ne i64 %17, 0
  br i1 %19, label %20, label %25

20:                                               ; preds = %16
  %21 = load ptr, ptr %5, align 8, !tbaa !5
  %22 = load i8, ptr %21, align 1, !tbaa !12
  %23 = sext i8 %22 to i32
  %24 = icmp ne i32 %23, 0
  br label %25

25:                                               ; preds = %20, %16
  %26 = phi i1 [ false, %16 ], [ %24, %20 ]
  br i1 %26, label %27, label %30

27:                                               ; preds = %25
  %28 = load ptr, ptr %5, align 8, !tbaa !5
  %29 = getelementptr inbounds nuw i8, ptr %28, i32 1
  store ptr %29, ptr %5, align 8, !tbaa !5
  br label %16, !llvm.loop !16

30:                                               ; preds = %25
  %31 = load ptr, ptr %5, align 8, !tbaa !5
  %32 = load ptr, ptr %8, align 8, !tbaa !5
  %33 = ptrtoint ptr %31 to i64
  %34 = ptrtoint ptr %32 to i64
  %35 = sub i64 %33, %34
  store i64 %35, ptr %11, align 8, !tbaa !10
  %36 = load i64, ptr %7, align 8, !tbaa !10
  %37 = load i64, ptr %11, align 8, !tbaa !10
  %38 = sub i64 %36, %37
  store i64 %38, ptr %10, align 8, !tbaa !10
  %39 = load i64, ptr %10, align 8, !tbaa !10
  %40 = add i64 %39, -1
  store i64 %40, ptr %10, align 8, !tbaa !10
  %41 = icmp eq i64 %39, 0
  br i1 %41, label %42, label %47

42:                                               ; preds = %30
  %43 = load i64, ptr %11, align 8, !tbaa !10
  %44 = load ptr, ptr %6, align 8, !tbaa !5
  %45 = call i64 @strlen(ptr noundef %44) #4
  %46 = add i64 %43, %45
  store i64 %46, ptr %4, align 8
  store i32 1, ptr %12, align 4
  br label %75

47:                                               ; preds = %30
  br label %48

48:                                               ; preds = %63, %47
  %49 = load ptr, ptr %6, align 8, !tbaa !5
  %50 = load i8, ptr %49, align 1, !tbaa !12
  %51 = sext i8 %50 to i32
  %52 = icmp ne i32 %51, 0
  br i1 %52, label %53, label %66

53:                                               ; preds = %48
  %54 = load i64, ptr %10, align 8, !tbaa !10
  %55 = icmp ne i64 %54, 0
  br i1 %55, label %56, label %63

56:                                               ; preds = %53
  %57 = load ptr, ptr %6, align 8, !tbaa !5
  %58 = load i8, ptr %57, align 1, !tbaa !12
  %59 = load ptr, ptr %5, align 8, !tbaa !5
  %60 = getelementptr inbounds nuw i8, ptr %59, i32 1
  store ptr %60, ptr %5, align 8, !tbaa !5
  store i8 %58, ptr %59, align 1, !tbaa !12
  %61 = load i64, ptr %10, align 8, !tbaa !10
  %62 = add i64 %61, -1
  store i64 %62, ptr %10, align 8, !tbaa !10
  br label %63

63:                                               ; preds = %56, %53
  %64 = load ptr, ptr %6, align 8, !tbaa !5
  %65 = getelementptr inbounds nuw i8, ptr %64, i32 1
  store ptr %65, ptr %6, align 8, !tbaa !5
  br label %48, !llvm.loop !17

66:                                               ; preds = %48
  %67 = load ptr, ptr %5, align 8, !tbaa !5
  store i8 0, ptr %67, align 1, !tbaa !12
  %68 = load i64, ptr %11, align 8, !tbaa !10
  %69 = load ptr, ptr %6, align 8, !tbaa !5
  %70 = load ptr, ptr %9, align 8, !tbaa !5
  %71 = ptrtoint ptr %69 to i64
  %72 = ptrtoint ptr %70 to i64
  %73 = sub i64 %71, %72
  %74 = add i64 %68, %73
  store i64 %74, ptr %4, align 8
  store i32 1, ptr %12, align 4
  br label %75

75:                                               ; preds = %66, %42
  call void @llvm.lifetime.end.p0(i64 8, ptr %11) #3
  call void @llvm.lifetime.end.p0(i64 8, ptr %10) #3
  call void @llvm.lifetime.end.p0(i64 8, ptr %9) #3
  call void @llvm.lifetime.end.p0(i64 8, ptr %8) #3
  %76 = load i64, ptr %4, align 8
  ret i64 %76
}

; Function Attrs: nounwind willreturn memory(read)
declare i64 @strlen(ptr noundef) #2


!llvm.module.flags = !{!0, !1, !2, !3, !4}

!0 = !{i32 1, !"wchar_size", i32 4}
!1 = !{i32 8, !"PIC Level", i32 2}
!2 = !{i32 7, !"PIE Level", i32 2}
!3 = !{i32 7, !"uwtable", i32 2}
!4 = !{i32 7, !"frame-pointer", i32 2}
!5 = !{!6, !6, i64 0}
!6 = !{!"p1 omnipotent char", !7, i64 0}
!7 = !{!"any pointer", !8, i64 0}
!8 = !{!"omnipotent char", !9, i64 0}
!9 = !{!"Simple C/C++ TBAA"}
!10 = !{!11, !11, i64 0}
!11 = !{!"long", !8, i64 0}
!12 = !{!8, !8, i64 0}
!13 = distinct !{!13, !14}
!14 = !{!"llvm.loop.mustprogress"}
!15 = distinct !{!15, !14}
!16 = distinct !{!16, !14}
!17 = distinct !{!17, !14}
